; Function Attrs: nounwind uwtable
define internal fastcc ptr @uriParseSegmentA(ptr noundef nonnull captures(none) %0, ptr noundef nonnull %1, ptr noundef nonnull %2, ptr noundef %3) unnamed_addr #0 {
  br label %tailrecurse

tailrecurse:                                      ; preds = %7, %4
  %.tr19 = phi ptr [ %1, %4 ], [ %8, %7 ]
  %.not = icmp ult ptr %.tr19, %2
  br i1 %.not, label %5, label %10

5:                                                ; preds = %tailrecurse
  %6 = load i8, ptr %.tr19, align 1, !tbaa !11
  switch i8 %6, label %10 [
    i8 33, label %7
    i8 36, label %7
    i8 37, label %7
    i8 38, label %7
    i8 40, label %7
    i8 41, label %7
    i8 45, label %7
    i8 42, label %7
    i8 44, label %7
    i8 46, label %7
    i8 58, label %7
    i8 59, label %7
    i8 64, label %7
    i8 39, label %7
    i8 95, label %7
    i8 126, label %7
    i8 43, label %7
    i8 61, label %7
    i8 48, label %7
    i8 49, label %7
    i8 50, label %7
    i8 51, label %7
    i8 52, label %7
    i8 53, label %7
    i8 54, label %7
    i8 55, label %7
    i8 56, label %7
    i8 57, label %7
    i8 65, label %7
    i8 66, label %7
    i8 67, label %7
    i8 68, label %7
    i8 69, label %7
    i8 70, label %7
    i8 97, label %7
    i8 98, label %7
    i8 99, label %7
    i8 100, label %7
    i8 101, label %7
    i8 102, label %7
    i8 103, label %7
    i8 71, label %7
    i8 104, label %7
    i8 72, label %7
    i8 105, label %7
    i8 73, label %7
    i8 106, label %7
    i8 74, label %7
    i8 107, label %7
    i8 75, label %7
    i8 108, label %7
    i8 76, label %7
    i8 109, label %7
    i8 77, label %7
    i8 110, label %7
    i8 78, label %7
    i8 111, label %7
    i8 79, label %7
    i8 112, label %7
    i8 80, label %7
    i8 113, label %7
    i8 81, label %7
    i8 114, label %7
    i8 82, label %7
    i8 115, label %7
    i8 83, label %7
    i8 116, label %7
    i8 84, label %7
    i8 117, label %7
    i8 85, label %7
    i8 118, label %7
    i8 86, label %7
    i8 119, label %7
    i8 87, label %7
    i8 120, label %7
    i8 88, label %7
    i8 121, label %7
    i8 89, label %7
    i8 122, label %7
    i8 90, label %7
  ]

7:                                                ; preds = %5, %5, %5, %5, %5, %5, %5, %5, %5, %5, %5, %5, %5, %5, %5, %5, %5, %5, %5, %5, %5, %5, %5, %5, %5, %5, %5, %5, %5, %5, %5, %5, %5, %5, %5, %5, %5, %5, %5, %5, %5, %5, %5, %5, %5, %5, %5, %5, %5, %5, %5, %5, %5, %5, %5, %5, %5, %5, %5, %5, %5, %5, %5, %5, %5, %5, %5, %5, %5, %5, %5, %5, %5, %5, %5, %5, %5, %5, %5, %5
  %8 = tail call fastcc ptr @uriParsePcharA(ptr noundef %0, ptr noundef %.tr19, ptr noundef %2, ptr noundef %3)
  %9 = icmp eq ptr %8, null
  br i1 %9, label %10, label %tailrecurse

10:                                               ; preds = %5, %7, %tailrecurse
  %.0 = phi ptr [ %2, %tailrecurse ], [ null, %7 ], [ %.tr19, %5 ]
  ret ptr %.0
}